; Function Attrs: nounwind uwtable
define range(i32 -3, 1) i32 @IDASetIncrementFactor(ptr noundef %0, double noundef %1) local_unnamed_addr #0 {
  %3 = icmp eq ptr %0, null
  br i1 %3, label %4, label %5

4:                                                ; preds = %2
  tail call void (ptr, i32, i32, ptr, ptr, ptr, ...) @IDAProcessError(ptr noundef null, i32 noundef -1, i32 noundef 1766, ptr noundef nonnull @__func__.IDASetIncrementFactor, ptr noundef nonnull @.str, ptr noundef nonnull @.str.1) #13
  br label %idaLs_AccessLMem.exit.thread

5:                                                ; preds = %2
  %6 = getelementptr inbounds nuw i8, ptr %0, i64 1048
  %7 = load ptr, ptr %6, align 8, !tbaa !65
  %8 = icmp eq ptr %7, null
  br i1 %8, label %9, label %idaLs_AccessLMem.exit

9:                                                ; preds = %5
  tail call void (ptr, i32, i32, ptr, ptr, ptr, ...) @IDAProcessError(ptr noundef nonnull %0, i32 noundef -2, i32 noundef 1773, ptr noundef nonnull @__func__.IDASetIncrementFactor, ptr noundef nonnull @.str, ptr noundef nonnull @.str.30) #13
  br label %idaLs_AccessLMem.exit.thread

idaLs_AccessLMem.exit:                            ; preds = %5
  %10 = fcmp ugt double %1, 0.000000e+00
  br i1 %10, label %12, label %11

11:                                               ; preds = %idaLs_AccessLMem.exit
  tail call void (ptr, i32, i32, ptr, ptr, ptr, ...) @IDAProcessError(ptr noundef nonnull %0, i32 noundef -3, i32 noundef 417, ptr noundef nonnull @__func__.IDASetIncrementFactor, ptr noundef nonnull @.str, ptr noundef nonnull @.str.15) #13
  br label %idaLs_AccessLMem.exit.thread

12:                                               ; preds = %idaLs_AccessLMem.exit
  %13 = getelementptr inbounds nuw i8, ptr %7, i64 120
  store double %1, ptr %13, align 8, !tbaa !56
  br label %idaLs_AccessLMem.exit.thread

idaLs_AccessLMem.exit.thread:                     ; preds = %9, %4, %12, %11
  %.0 = phi i32 [ -3, %11 ], [ 0, %12 ], [ -2, %9 ], [ -1, %4 ]
  ret i32 %.0
}